(lp1
(lp2
I6
aI0
aI0
aI0
aa(lp3
I9
aI6
aI0
aI0
aa(lp4
I5
aI0
aI0
aI0
aa(lp5
I5
aI0
aI0
aI0
aa(lp6
I1
aI0
aI0
aI0
aa(lp7
I3
aI0
aI0
aI0
aa(lp8
I13
aI1
aI0
aI0
aa(lp9
I0
aI0
aI0
aI0
aa(lp10
I0
aI0
aI0
aI0
aa(lp11
I2
aI0
aI0
aI0
aa(lp12
I7
aI0
aI0
aI0
aa(lp13
I1
aI0
aI0
aI0
aa(lp14
I3
aI0
aI0
aI0
aa(lp15
I0
aI0
aI0
aI0
aa(lp16
I1
aI0
aI0
aI0
aa(lp17
I6
aI0
aI0
aI0
aa(lp18
I1
aI0
aI0
aI0
aa(lp19
I5
aI0
aI0
aI0
aa(lp20
I10
aI4
aI0
aI0
aa(lp21
I4
aI2
aI0
aI0
aa(lp22
I9
aI0
aI0
aI0
aa(lp23
I9
aI0
aI0
aI0
aa(lp24
I4
aI0
aI0
aI0
aa(lp25
I3
aI0
aI0
aI0
aa(lp26
I1
aI0
aI0
aI0
aa(lp27
I6
aI0
aI0
aI0
aa(lp28
I1
aI0
aI0
aI0
aa(lp29
I11
aI4
aI0
aI0
aa(lp30
I0
aI0
aI0
aI0
aa(lp31
I11
aI2
aI0
aI0
aa(lp32
I3
aI0
aI0
aI0
aa(lp33
I3
aI0
aI0
aI0
aa(lp34
I0
aI0
aI0
aI0
aa(lp35
I3
aI0
aI0
aI0
aa(lp36
I0
aI0
aI0
aI0
aa(lp37
I3
aI0
aI0
aI0
aa(lp38
I2
aI0
aI0
aI0
aa(lp39
I3
aI0
aI0
aI0
aa(lp40
I4
aI0
aI0
aI0
aa(lp41
I2
aI0
aI0
aI0
aa(lp42
I1
aI0
aI0
aI0
aa(lp43
I1
aI0
aI0
aI0
aa(lp44
I0
aI0
aI0
aI0
aa(lp45
I4
aI0
aI0
aI0
aa(lp46
I0
aI0
aI0
aI0
aa(lp47
I4
aI0
aI0
aI0
aa(lp48
I0
aI0
aI0
aI0
aa(lp49
I6
aI0
aI0
aI0
aa(lp50
I4
aI0
aI0
aI0
aa(lp51
I27
aI0
aI0
aI0
aa(lp52
I1
aI0
aI0
aI0
aa(lp53
I8
aI0
aI0
aI0
aa(lp54
I3
aI0
aI0
aI0
aa(lp55
I11
aI5
aI0
aI0
aa(lp56
I7
aI3
aI0
aI0
aa(lp57
I1
aI0
aI0
aI0
aa(lp58
I2
aI0
aI0
aI0
aa(lp59
I5
aI0
aI0
aI0
aa(lp60
I4
aI0
aI0
aI0
aa(lp61
I5
aI0
aI0
aI0
aa(lp62
I3
aI0
aI0
aI0
aa(lp63
I0
aI0
aI0
aI0
aa(lp64
I5
aI0
aI0
aI0
aa(lp65
I1
aI0
aI0
aI0
aa(lp66
I5
aI0
aI0
aI0
aa(lp67
I1
aI0
aI0
aI0
aa(lp68
I4
aI0
aI0
aI0
aa(lp69
I4
aI0
aI0
aI0
aa(lp70
I6
aI0
aI0
aI0
aa(lp71
I4
aI0
aI0
aI0
aa(lp72
I0
aI0
aI0
aI0
aa(lp73
I5
aI0
aI0
aI0
aa(lp74
I1
aI0
aI0
aI0
aa(lp75
I6
aI0
aI0
aI0
aa(lp76
I3
aI0
aI0
aI0
aa(lp77
I0
aI0
aI0
aI0
aa(lp78
I4
aI0
aI0
aI0
aa(lp79
I8
aI0
aI0
aI0
aa(lp80
I6
aI0
aI0
aI0
aa(lp81
I9
aI0
aI0
aI0
aa(lp82
I6
aI0
aI0
aI0
aa(lp83
I17
aI6
aI0
aI0
aa(lp84
I7
aI4
aI0
aI0
aa(lp85
I1
aI0
aI0
aI0
aa(lp86
I7
aI0
aI0
aI0
aa(lp87
I2
aI0
aI0
aI0
aa(lp88
I0
aI0
aI0
aI0
aa(lp89
I1
aI0
aI0
aI0
aa(lp90
I4
aI0
aI0
aI0
aa(lp91
I4
aI0
aI0
aI0
aa(lp92
I3
aI0
aI0
aI0
aa(lp93
I2
aI0
aI0
aI0
aa(lp94
I3
aI0
aI0
aI0
aa(lp95
I5
aI0
aI0
aI0
aa(lp96
I6
aI0
aI0
aI0
aa(lp97
I2
aI0
aI0
aI0
aa(lp98
I3
aI0
aI0
aI0
aa(lp99
I7
aI2
aI0
aI0
aa(lp100
I2
aI0
aI0
aI0
aa(lp101
I5
aI0
aI0
aI0
aa(lp102
I7
aI0
aI0
aI0
aa(lp103
I5
aI0
aI0
aI0
aa(lp104
I0
aI0
aI0
aI0
aa(lp105
I3
aI0
aI0
aI0
aa(lp106
I3
aI0
aI0
aI0
aa(lp107
I9
aI0
aI0
aI0
aa(lp108
I1
aI0
aI0
aI0
aa(lp109
I6
aI0
aI0
aI0
aa(lp110
I4
aI0
aI0
aI0
aa(lp111
I6
aI0
aI0
aI0
aa(lp112
I0
aI0
aI0
aI0
aa(lp113
I3
aI0
aI0
aI0
aa(lp114
I6
aI0
aI0
aI0
aa(lp115
I0
aI0
aI0
aI0
aa(lp116
I1
aI0
aI0
aI0
aa(lp117
I0
aI0
aI0
aI0
aa(lp118
I1
aI0
aI0
aI0
aa(lp119
I0
aI0
aI0
aI0
aa(lp120
I1
aI0
aI0
aI0
aa(lp121
I10
aI0
aI0
aI0
aa(lp122
I1
aI0
aI0
aI0
aa(lp123
I4
aI0
aI0
aI0
aa(lp124
I4
aI0
aI0
aI0
aa(lp125
I7
aI0
aI0
aI0
aa(lp126
I5
aI0
aI0
aI0
aa(lp127
I3
aI0
aI0
aI0
aa(lp128
I4
aI0
aI0
aI0
aa(lp129
I3
aI0
aI0
aI0
aa(lp130
I13
aI0
aI0
aI0
aa(lp131
I3
aI0
aI0
aI0
aa(lp132
I2
aI0
aI0
aI0
aa(lp133
I2
aI0
aI0
aI0
aa(lp134
I2
aI0
aI0
aI0
aa(lp135
I3
aI0
aI0
aI0
aa(lp136
I0
aI0
aI0
aI0
aa(lp137
I10
aI0
aI0
aI0
aa(lp138
I1
aI0
aI0
aI0
aa(lp139
I10
aI0
aI0
aI0
aa(lp140
I2
aI0
aI0
aI0
aa(lp141
I3
aI0
aI0
aI0
aa(lp142
I6
aI0
aI0
aI0
aa(lp143
I2
aI0
aI0
aI0
aa(lp144
I3
aI0
aI0
aI0
aa(lp145
I7
aI0
aI0
aI0
aa(lp146
I2
aI0
aI0
aI0
aa(lp147
I3
aI0
aI0
aI0
aa(lp148
I8
aI0
aI0
aI0
aa(lp149
I3
aI0
aI0
aI0
aa(lp150
I2
aI0
aI0
aI0
aa(lp151
I2
aI0
aI0
aI0
aa(lp152
I23
aI0
aI0
aI0
aa(lp153
I10
aI2
aI0
aI0
aa(lp154
I0
aI0
aI0
aI0
aa(lp155
I6
aI0
aI0
aI0
aa(lp156
I9
aI0
aI0
aI0
aa(lp157
I17
aI0
aI0
aI0
aa(lp158
I10
aI6
aI0
aI0
aa(lp159
I5
aI0
aI0
aI0
aa(lp160
I14
aI0
aI0
aI0
aa(lp161
I3
aI0
aI0
aI0
aa(lp162
I2
aI0
aI0
aI0
aa(lp163
I3
aI0
aI0
aI0
aa(lp164
I3
aI0
aI0
aI0
aa(lp165
I17
aI5
aI0
aI0
aa(lp166
I7
aI0
aI0
aI0
aa(lp167
I4
aI0
aI0
aI0
aa(lp168
I3
aI0
aI0
aI0
aa(lp169
I2
aI0
aI0
aI0
aa(lp170
I2
aI0
aI0
aI0
aa(lp171
I10
aI2
aI0
aI0
aa(lp172
I2
aI0
aI0
aI0
aa(lp173
I4
aI0
aI0
aI0
aa(lp174
I1
aI0
aI0
aI0
aa(lp175
I5
aI0
aI0
aI0
aa(lp176
I1
aI0
aI0
aI0
aa(lp177
I4
aI0
aI0
aI0
aa(lp178
I2
aI0
aI0
aI0
aa(lp179
I0
aI0
aI0
aI0
aa(lp180
I3
aI0
aI0
aI0
aa(lp181
I2
aI0
aI0
aI0
aa(lp182
I10
aI0
aI0
aI0
aa(lp183
I2
aI0
aI0
aI0
aa(lp184
I2
aI0
aI0
aI0
aa(lp185
I4
aI0
aI0
aI0
aa(lp186
I4
aI0
aI0
aI0
aa(lp187
I5
aI0
aI0
aI0
aa(lp188
I5
aI0
aI0
aI0
aa(lp189
I5
aI2
aI0
aI0
aa(lp190
I4
aI0
aI0
aI0
aa(lp191
I4
aI0
aI0
aI0
aa(lp192
I2
aI0
aI0
aI0
aa(lp193
I7
aI0
aI0
aI0
aa(lp194
I8
aI0
aI0
aI0
aa(lp195
I2
aI0
aI0
aI0
aa(lp196
I4
aI0
aI0
aI0
aa(lp197
I4
aI0
aI0
aI0
aa(lp198
I3
aI0
aI0
aI0
aa(lp199
I6
aI0
aI0
aI0
aa(lp200
I2
aI0
aI0
aI0
aa(lp201
I6
aI0
aI0
aI0
aa(lp202
I6
aI0
aI0
aI0
aa(lp203
I5
aI2
aI0
aI0
aa(lp204
I2
aI0
aI0
aI0
aa(lp205
I5
aI3
aI0
aI0
aa(lp206
I9
aI0
aI0
aI0
aa(lp207
I4
aI0
aI0
aI0
aa(lp208
I26
aI12
aI0
aI0
aa(lp209
I7
aI2
aI0
aI0
aa(lp210
I2
aI0
aI0
aI0
aa(lp211
I3
aI0
aI0
aI0
aa(lp212
I7
aI0
aI0
aI0
aa(lp213
I4
aI0
aI0
aI0
aa(lp214
I6
aI0
aI0
aI0
aa(lp215
I10
aI0
aI0
aI0
aa(lp216
I3
aI0
aI0
aI0
aa(lp217
I2
aI0
aI0
aI0
aa(lp218
I13
aI2
aI0
aI0
aa(lp219
I6
aI0
aI0
aI0
aa(lp220
I8
aI0
aI0
aI0
aa(lp221
I6
aI0
aI0
aI0
aa(lp222
I9
aI0
aI0
aI0
aa(lp223
I0
aI0
aI0
aI0
aa(lp224
I0
aI0
aI0
aI0
aa(lp225
I4
aI0
aI0
aI0
aa(lp226
I14
aI3
aI0
aI0
aa(lp227
I4
aI0
aI0
aI0
aa(lp228
I15
aI7
aI0
aI0
aa(lp229
I6
aI0
aI0
aI0
aa(lp230
I8
aI0
aI0
aI0
aa(lp231
I0
aI0
aI0
aI0
aa(lp232
I4
aI0
aI0
aI0
aa(lp233
I6
aI0
aI0
aI0
aa(lp234
I2
aI0
aI0
aI0
aa(lp235
I2
aI0
aI0
aI0
aa(lp236
I0
aI0
aI0
aI0
aa(lp237
I3
aI0
aI0
aI0
aa(lp238
I0
aI0
aI0
aI0
aa(lp239
I0
aI0
aI0
aI0
aa(lp240
I5
aI1
aI0
aI0
aa(lp241
I0
aI0
aI0
aI0
aa(lp242
I0
aI0
aI0
aI0
aa(lp243
I0
aI0
aI0
aI0
aa(lp244
I2
aI0
aI0
aI0
aa(lp245
I0
aI0
aI0
aI0
aa(lp246
I0
aI0
aI0
aI0
aa(lp247
I0
aI0
aI0
aI0
aa(lp248
I7
aI0
aI0
aI0
aa(lp249
I0
aI0
aI0
aI0
aa(lp250
I0
aI0
aI0
aI0
aa(lp251
I0
aI0
aI0
aI0
aa(lp252
I0
aI0
aI0
aI0
aa(lp253
I0
aI0
aI0
aI0
aa(lp254
I0
aI0
aI0
aI0
aa(lp255
I0
aI0
aI0
aI0
aa(lp256
I6
aI0
aI0
aI0
aa(lp257
I0
aI0
aI0
aI0
aa(lp258
I1
aI0
aI0
aI0
aa(lp259
I0
aI0
aI0
aI0
aa(lp260
I0
aI0
aI0
aI0
aa(lp261
I0
aI0
aI0
aI0
aa(lp262
I0
aI0
aI0
aI0
aa(lp263
I0
aI0
aI0
aI0
aa(lp264
I0
aI0
aI0
aI0
aa(lp265
I0
aI0
aI0
aI0
aa(lp266
I0
aI0
aI0
aI0
aa(lp267
I4
aI0
aI0
aI0
aa(lp268
I0
aI0
aI0
aI0
aa(lp269
I0
aI0
aI0
aI0
aa(lp270
I0
aI0
aI0
aI0
aa(lp271
I0
aI0
aI0
aI0
aa(lp272
I0
aI0
aI0
aI0
aa(lp273
I0
aI0
aI0
aI0
aa(lp274
I0
aI0
aI0
aI0
aa(lp275
I0
aI0
aI0
aI0
aa(lp276
I0
aI0
aI0
aI0
aa(lp277
I0
aI0
aI0
aI0
aa(lp278
I0
aI0
aI0
aI0
aa(lp279
I2
aI0
aI0
aI0
aa(lp280
I0
aI0
aI0
aI0
aa(lp281
I0
aI0
aI0
aI0
aa(lp282
I0
aI0
aI0
aI0
aa(lp283
I0
aI0
aI0
aI0
aa(lp284
I0
aI0
aI0
aI0
aa(lp285
I0
aI0
aI0
aI0
aa(lp286
I3
aI0
aI0
aI0
aa(lp287
I2
aI0
aI0
aI0
aa(lp288
I2
aI0
aI0
aI0
aa(lp289
I0
aI0
aI0
aI0
aa(lp290
I0
aI0
aI0
aI0
aa(lp291
I0
aI0
aI0
aI0
aa(lp292
I5
aI0
aI0
aI0
aa(lp293
I4
aI0
aI0
aI0
aa(lp294
I0
aI0
aI0
aI0
aa(lp295
I6
aI0
aI0
aI0
aa(lp296
I0
aI0
aI0
aI0
aa(lp297
I0
aI0
aI0
aI0
aa(lp298
I0
aI0
aI0
aI0
aa(lp299
I0
aI0
aI0
aI0
aa(lp300
I0
aI0
aI0
aI0
aa(lp301
I0
aI0
aI0
aI0
aa(lp302
I2
aI0
aI0
aI0
aa(lp303
I0
aI0
aI0
aI0
aa(lp304
I2
aI0
aI0
aI0
aa(lp305
I0
aI0
aI0
aI0
aa(lp306
I0
aI0
aI0
aI0
aa(lp307
I2
aI0
aI0
aI0
aa(lp308
I0
aI0
aI0
aI0
aa(lp309
I0
aI0
aI0
aI0
aa(lp310
I2
aI0
aI0
aI0
aa(lp311
I0
aI0
aI0
aI0
aa(lp312
I0
aI0
aI0
aI0
aa(lp313
I0
aI0
aI0
aI0
aa(lp314
I0
aI0
aI0
aI0
aa(lp315
I3
aI0
aI0
aI0
aa(lp316
I2
aI0
aI0
aI0
aa(lp317
I3
aI0
aI0
aI0
aa(lp318
I3
aI0
aI0
aI0
aa(lp319
I11
aI2
aI0
aI0
aa(lp320
I6
aI0
aI0
aI0
aa(lp321
I2
aI0
aI0
aI0
aa(lp322
I0
aI0
aI0
aI0
aa(lp323
I0
aI0
aI0
aI0
aa(lp324
I5
aI0
aI0
aI0
aa(lp325
I0
aI0
aI0
aI0
aa(lp326
I0
aI0
aI0
aI0
aa(lp327
I3
aI0
aI0
aI0
aa(lp328
I8
aI0
aI0
aI0
aa(lp329
I1
aI0
aI0
aI0
aa(lp330
I4
aI0
aI0
aI0
aa(lp331
I0
aI0
aI0
aI0
aa(lp332
I1
aI0
aI0
aI0
aa(lp333
I3
aI0
aI0
aI0
aa(lp334
I0
aI0
aI0
aI0
aa(lp335
I2
aI0
aI0
aI0
aa(lp336
I0
aI0
aI0
aI0
aa(lp337
I0
aI0
aI0
aI0
aa(lp338
I3
aI0
aI0
aI0
aa(lp339
I0
aI0
aI0
aI0
aa(lp340
I0
aI0
aI0
aI0
aa(lp341
I0
aI0
aI0
aI0
aa(lp342
I0
aI0
aI0
aI0
aa(lp343
I0
aI0
aI0
aI0
aa(lp344
I0
aI0
aI0
aI0
aa(lp345
I0
aI0
aI0
aI0
aa(lp346
I4
aI0
aI0
aI0
aa(lp347
I0
aI0
aI0
aI0
aa(lp348
I0
aI0
aI0
aI0
aa(lp349
I2
aI0
aI0
aI0
aa(lp350
I3
aI0
aI0
aI0
aa(lp351
I6
aI0
aI0
aI0
aa(lp352
I8
aI0
aI0
aI0
aa(lp353
I15
aI5
aI0
aI0
aa(lp354
I4
aI0
aI0
aI0
aa(lp355
I3
aI0
aI0
aI0
aa(lp356
I4
aI0
aI0
aI0
aa(lp357
I2
aI0
aI0
aI0
aa(lp358
I4
aI0
aI0
aI0
aa(lp359
I0
aI0
aI0
aI0
aa(lp360
I0
aI0
aI0
aI0
aa(lp361
I8
aI0
aI0
aI0
aa(lp362
I0
aI0
aI0
aI0
aa(lp363
I2
aI0
aI0
aI0
aa(lp364
I1
aI0
aI0
aI0
aa(lp365
I0
aI0
aI0
aI0
aa(lp366
I0
aI0
aI0
aI0
aa(lp367
I0
aI0
aI0
aI0
aa.